Certificate:
    Data:
        Version: 3 (0x2)
        Serial Number: 4097 (0x1001)
    Signature Algorithm: sha256WithRSAEncryption
        Issuer: C=LK, ST=Western, L=Colombo, O=University of Colombo, OU=School of Computing, CN=UCSC CA/emailAddress=pasindurohana@gmail.com
        Validity
            Not Before: May 31 13:54:45 2018 GMT
            Not After : May 31 13:54:45 2019 GMT
        Subject: C=LK, ST=Western, O=University of Colombo, OU=School of Computing, CN=localhost/emailAddress=pasindurohana2@gmail.com
        Subject Public Key Info:
            Public Key Algorithm: rsaEncryption
                Public-Key: (1024 bit)
                Modulus:
                    00:e6:54:fb:65:97:67:30:fe:6d:0c:b5:8b:65:42:
                    66:88:3e:f7:3d:27:63:1a:1f:2f:8f:d9:47:71:09:
                    af:c8:31:23:a2:a0:41:c5:3c:f9:5e:31:a8:f0:30:
                    28:55:3b:b2:06:fc:48:52:b6:cb:2d:35:44:4e:e5:
                    cf:a6:f4:33:8b:73:8a:b4:91:19:ed:72:24:b0:c9:
                    ae:25:e3:ae:7a:ce:dd:e3:31:9c:ea:24:bf:b1:da:
                    c5:9e:0a:fb:16:47:47:c8:53:58:bc:a8:03:6f:1c:
                    fd:17:7c:78:e1:b9:88:e5:99:e9:61:a0:59:b5:f4:
                    aa:5d:f3:80:3e:02:af:af:33
                Exponent: 65537 (0x10001)
        X509v3 extensions:
            X509v3 Basic Constraints: 
                CA:FALSE
            Netscape Comment: 
                OpenSSL Generated Certificate
            X509v3 Subject Key Identifier: 
                7F:E3:4C:1E:38:27:46:CA:0C:25:32:56:88:19:2E:0F:87:5B:7C:5F
            X509v3 Authority Key Identifier: 
                keyid:91:7A:D3:CE:F7:15:DC:48:84:D7:B0:02:89:2E:D7:EB:C4:86:22:E8

    Signature Algorithm: sha256WithRSAEncryption
         30:02:a2:56:cd:98:77:cb:6d:94:8c:df:20:8b:3d:0b:51:25:
         96:5a:76:1f:74:ca:c3:df:a9:13:1c:47:03:29:25:69:00:c5:
         de:84:a2:9b:d9:6a:72:9b:e8:d9:96:7f:26:61:a5:54:8f:52:
         75:e0:bc:15:6b:e3:6d:57:86:79:ef:3d:ba:ea:1d:ef:2c:16:
         26:d8:ed:96:6a:08:e9:8d:5b:bb:96:65:e9:e2:5b:2f:e7:58:
         95:c0:54:a4:4e:1b:9d:f2:22:c4:77:1d:1c:ab:a3:48:85:a8:
         c0:36:b7:62:b3:63:ed:37:b0:31:f9:9c:23:71:f7:07:27:3a:
         47:50
-----BEGIN CERTIFICATE-----
MIIDNzCCAqCgAwIBAgICEAEwDQYJKoZIhvcNAQELBQAwgakxCzAJBgNVBAYTAkxL
MRAwDgYDVQQIDAdXZXN0ZXJuMRAwDgYDVQQHDAdDb2xvbWJvMR4wHAYDVQQKDBVV
bml2ZXJzaXR5IG9mIENvbG9tYm8xHDAaBgNVBAsME1NjaG9vbCBvZiBDb21wdXRp
bmcxEDAOBgNVBAMMB1VDU0MgQ0ExJjAkBgkqhkiG9w0BCQEWF3Bhc2luZHVyb2hh
bmFAZ21haWwuY29tMB4XDTE4MDUzMTEzNTQ0NVoXDTE5MDUzMTEzNTQ0NVowgZox
CzAJBgNVBAYTAkxLMRAwDgYDVQQIDAdXZXN0ZXJuMR4wHAYDVQQKDBVVbml2ZXJz
aXR5IG9mIENvbG9tYm8xHDAaBgNVBAsME1NjaG9vbCBvZiBDb21wdXRpbmcxEjAQ
BgNVBAMMCWxvY2FsaG9zdDEnMCUGCSqGSIb3DQEJARYYcGFzaW5kdXJvaGFuYTJA
Z21haWwuY29tMIGfMA0GCSqGSIb3DQEBAQUAA4GNADCBiQKBgQDmVPtll2cw/m0M
tYtlQmaIPvc9J2MaHy+P2UdxCa/IMSOioEHFPPleMajwMChVO7IG/EhStsstNURO
5c+m9DOLc4q0kRntciSwya4l4656zt3jMZzqJL+x2sWeCvsWR0fIU1i8qANvHP0X
fHjhuYjlmelhoFm19Kpd84A+Aq+vMwIDAQABo3sweTAJBgNVHRMEAjAAMCwGCWCG
SAGG+EIBDQQfFh1PcGVuU1NMIEdlbmVyYXRlZCBDZXJ0aWZpY2F0ZTAdBgNVHQ4E
FgQUf+NMHjgnRsoMJTJWiBkuD4dbfF8wHwYDVR0jBBgwFoAUkXrTzvcV3EiE17AC
iS7X68SGIugwDQYJKoZIhvcNAQELBQADgYEAMAKiVs2Yd8ttlIzfIIs9C1Elllp2
H3TKw9+pExxHAyklaQDF3oSim9lqcpvo2ZZ/JmGlVI9SdeC8FWvjbVeGee89uuod
7ywWJtjtlmoI6Y1bu5Zl6eJbL+dYlcBUpE4bnfIixHcdHKujSIWowDa3YrNj7Tew
MfmcI3H3Byc6R1A=
-----END CERTIFICATE-----
