Certificate:
    Data:
        Version: 3 (0x2)
        Serial Number: 4096 (0x1000)
    Signature Algorithm: sha256WithRSAEncryption
        Issuer: C=LK, ST=Western, L=Colombo, O=University of Colombo, OU=School of Computing, CN=UCSC CA/emailAddress=pasindurohana@gmail.com
        Validity
            Not Before: May 31 13:53:40 2018 GMT
            Not After : May 31 13:53:40 2019 GMT
        Subject: C=LK, ST=Western, O=University of Colombo, OU=School of Computing, CN=PASINDU WEERASINGHE/emailAddress=pasindurohana5@gmail.com
        Subject Public Key Info:
            Public Key Algorithm: rsaEncryption
                Public-Key: (1024 bit)
                Modulus:
                    00:9e:e7:ee:74:4a:68:f4:e1:11:71:08:6c:74:85:
                    d0:2a:60:2b:89:37:9d:61:ed:17:b1:17:eb:49:79:
                    1f:f8:bd:88:7f:51:ad:ef:a3:15:58:61:00:bf:b0:
                    39:f4:96:f6:13:0b:f8:72:0d:14:af:9a:a0:6c:d8:
                    6a:66:fb:49:61:ec:0a:cc:29:67:2e:30:4d:79:b7:
                    48:e5:3d:5f:57:95:7b:7b:ed:e7:d4:d8:98:35:e1:
                    8a:86:dc:0f:d2:93:63:4c:a7:fd:6a:dc:96:a1:b2:
                    9f:04:52:45:ff:43:b4:c5:9b:45:3b:77:48:a9:c4:
                    20:ee:e0:59:28:e2:89:31:35
                Exponent: 65537 (0x10001)
        X509v3 extensions:
            X509v3 Basic Constraints: 
                CA:FALSE
            Netscape Comment: 
                OpenSSL Generated Certificate
            X509v3 Subject Key Identifier: 
                87:82:18:BF:75:87:E1:AF:B2:C1:0E:E0:28:5C:ED:FC:4D:CC:58:8E
            X509v3 Authority Key Identifier: 
                keyid:91:7A:D3:CE:F7:15:DC:48:84:D7:B0:02:89:2E:D7:EB:C4:86:22:E8

    Signature Algorithm: sha256WithRSAEncryption
         2b:3e:f5:60:4f:1a:dc:65:2c:e1:d5:ae:7c:58:34:7d:2f:01:
         41:aa:0b:bd:b0:ea:b9:62:0f:25:4d:17:4c:98:e9:fa:ed:6f:
         4e:24:ac:2f:78:9d:7e:f9:b5:4f:8b:03:96:5f:09:2b:6e:b4:
         1f:da:4e:42:65:b9:a1:99:9b:36:bb:54:8d:61:56:63:a1:25:
         8e:b5:7b:12:43:b9:2f:f5:f5:60:6d:33:90:5d:0c:30:f1:eb:
         58:ab:53:c4:c2:d3:9a:1d:fb:89:99:b5:e1:6c:79:a6:f2:1a:
         ee:6f:72:8f:68:d5:a3:3d:31:15:ac:91:d9:79:ad:fc:dc:10:
         69:0e
-----BEGIN CERTIFICATE-----
MIIDQTCCAqqgAwIBAgICEAAwDQYJKoZIhvcNAQELBQAwgakxCzAJBgNVBAYTAkxL
MRAwDgYDVQQIDAdXZXN0ZXJuMRAwDgYDVQQHDAdDb2xvbWJvMR4wHAYDVQQKDBVV
bml2ZXJzaXR5IG9mIENvbG9tYm8xHDAaBgNVBAsME1NjaG9vbCBvZiBDb21wdXRp
bmcxEDAOBgNVBAMMB1VDU0MgQ0ExJjAkBgkqhkiG9w0BCQEWF3Bhc2luZHVyb2hh
bmFAZ21haWwuY29tMB4XDTE4MDUzMTEzNTM0MFoXDTE5MDUzMTEzNTM0MFowgaQx
CzAJBgNVBAYTAkxLMRAwDgYDVQQIDAdXZXN0ZXJuMR4wHAYDVQQKDBVVbml2ZXJz
aXR5IG9mIENvbG9tYm8xHDAaBgNVBAsME1NjaG9vbCBvZiBDb21wdXRpbmcxHDAa
BgNVBAMME1BBU0lORFUgV0VFUkFTSU5HSEUxJzAlBgkqhkiG9w0BCQEWGHBhc2lu
ZHVyb2hhbmE1QGdtYWlsLmNvbTCBnzANBgkqhkiG9w0BAQEFAAOBjQAwgYkCgYEA
nufudEpo9OERcQhsdIXQKmAriTedYe0XsRfrSXkf+L2If1Gt76MVWGEAv7A59Jb2
Ewv4cg0Ur5qgbNhqZvtJYewKzClnLjBNebdI5T1fV5V7e+3n1NiYNeGKhtwP0pNj
TKf9atyWobKfBFJF/0O0xZtFO3dIqcQg7uBZKOKJMTUCAwEAAaN7MHkwCQYDVR0T
BAIwADAsBglghkgBhvhCAQ0EHxYdT3BlblNTTCBHZW5lcmF0ZWQgQ2VydGlmaWNh
dGUwHQYDVR0OBBYEFIeCGL91h+GvssEO4Chc7fxNzFiOMB8GA1UdIwQYMBaAFJF6
0873FdxIhNewAoku1+vEhiLoMA0GCSqGSIb3DQEBCwUAA4GBACs+9WBPGtxlLOHV
rnxYNH0vAUGqC72w6rliDyVNF0yY6frtb04krC94nX75tU+LA5ZfCStutB/aTkJl
uaGZmza7VI1hVmOhJY61exJDuS/19WBtM5BdDDDx61irU8TC05od+4mZteFseaby
Gu5vco9o1aM9MRWskdl5rfzcEGkO
-----END CERTIFICATE-----
